c__builtin__
set
p0
((lp1
S'//lh3.googleusercontent.com/J8kUfrUigeTuBZYHVp5XRKlxmOaOl5g1oXT6EFdVon8xYPoUvkW1N_e05O7-hnqk7UQ=h900'
p2
aS'//lh3.googleusercontent.com/22ySaopy8gQQelxKpUMUP56i9kAhnoONR4RmjEZ1AyvWqbO-ae_kO8Hi1zIqBfqNjFk=h900'
p3
aS'//lh3.googleusercontent.com/S97uuMKpsZXzQ70_lf-535aUHwN3pw98veYbHR0CduoNCD7nt9QuBqTPXrk916mNwnJ1=h900'
p4
aS'//lh3.googleusercontent.com/UJsqbNSI3dFLNeVw0qGYdDNz3uvzrKOw9r0DHQ0KZigwrKfFyiLSFjSTkI_DBdYz2yt-=h900'
p5
aS'//lh3.googleusercontent.com/dq_t7Is81-gkHYxKfAQ7PuLQBR-Qrte-7S1DsKFZnhaZATpibMSiw3aCrJzYik1x3IV5=h900'
p6
atp7
Rp8
.